target datalayout = "e-m:e-p270:32:32-p271:32:32-p272:64:64-i64:64-i128:128-f80:128-n8:16:32:64-S128"
target triple = "x86_64-pc-linux-gnu"

%struct.Dch_Pars_t_ = type { i32, i32, i32, i32, i32, i32, i32, i32, i32, i32, i32, i32, i32, i32, i64, i32, i32 }
%struct.Dch_Man_t_ = type { ptr, ptr, ptr, ptr, ptr, ptr, i32, ptr, ptr, i32, i32, ptr, ptr, ptr, i32, i32, i32, i32, i32, i32, i32, i32, i32, i32, i32, i64, i64, i64, i64, i64, i64, i64, i64, i64 }
%struct.timespec = type { i64, i64 }

; Function Attrs: inlinehint nounwind uwtable
define internal i64 @Abc_Clock() #4 {
  %1 = alloca i64, align 8
  %2 = alloca %struct.timespec, align 8
  %3 = alloca i32, align 4
  %4 = alloca i64, align 8
  call void @llvm.lifetime.start.p0(i64 16, ptr %2) #8
  %5 = call i32 @clock_gettime(i32 noundef 1, ptr noundef %2) #8
  %6 = icmp slt i32 %5, 0
  br i1 %6, label %7, label %8

7:                                                ; preds = %0
  store i64 -1, ptr %1, align 8
  store i32 1, ptr %3, align 4
  br label %19

8:                                                ; preds = %0
  call void @llvm.lifetime.start.p0(i64 8, ptr %4) #8
  %9 = getelementptr inbounds nuw %struct.timespec, ptr %2, i32 0, i32 0
  %10 = load i64, ptr %9, align 8, !tbaa !51
  %11 = mul nsw i64 %10, 1000000
  store i64 %11, ptr %4, align 8, !tbaa !25
  %12 = getelementptr inbounds nuw %struct.timespec, ptr %2, i32 0, i32 1
  %13 = load i64, ptr %12, align 8, !tbaa !53
  %14 = mul nsw i64 %13, 1000000
  %15 = sdiv i64 %14, 1000000000
  %16 = load i64, ptr %4, align 8, !tbaa !25
  %17 = add nsw i64 %16, %15
  store i64 %17, ptr %4, align 8, !tbaa !25
  %18 = load i64, ptr %4, align 8, !tbaa !25
  store i64 %18, ptr %1, align 8
  store i32 1, ptr %3, align 4
  call void @llvm.lifetime.end.p0(i64 8, ptr %4) #8
  br label %19

19:                                               ; preds = %8, %7
  call void @llvm.lifetime.end.p0(i64 16, ptr %2) #8
  %20 = load i64, ptr %1, align 8
  ret i64 %20
}

; Function Attrs: nounwind uwtable
define void @Dch_ComputeEquivalences(ptr noundef %0, ptr noundef %1) #0 {
  %3 = alloca ptr, align 8
  %4 = alloca ptr, align 8
  %5 = alloca ptr, align 8
  %6 = alloca i64, align 8
  %7 = alloca i64, align 8
  store ptr %0, ptr %3, align 8, !tbaa !23
  store ptr %1, ptr %4, align 8, !tbaa !3
  call void @llvm.lifetime.start.p0(i64 8, ptr %5) #8
  call void @llvm.lifetime.start.p0(i64 8, ptr %6) #8
  call void @llvm.lifetime.start.p0(i64 8, ptr %7) #8
  %8 = call i64 @Abc_Clock()
  store i64 %8, ptr %7, align 8, !tbaa !25
  %9 = call i32 @Aig_ManRandom(i32 noundef 1)
  %10 = load ptr, ptr %3, align 8, !tbaa !23
  %11 = load ptr, ptr %4, align 8, !tbaa !3
  %12 = call ptr @Dch_ManCreate(ptr noundef %10, ptr noundef %11)
  store ptr %12, ptr %5, align 8, !tbaa !26
  %13 = call i64 @Abc_Clock()
  store i64 %13, ptr %6, align 8, !tbaa !25
  %14 = load ptr, ptr %3, align 8, !tbaa !23
  %15 = load ptr, ptr %4, align 8, !tbaa !3
  %16 = getelementptr inbounds nuw %struct.Dch_Pars_t_, ptr %15, i32 0, i32 0
  %17 = load i32, ptr %16, align 8, !tbaa !8
  %18 = load ptr, ptr %4, align 8, !tbaa !3
  %19 = getelementptr inbounds nuw %struct.Dch_Pars_t_, ptr %18, i32 0, i32 13
  %20 = load i32, ptr %19, align 4, !tbaa !20
  %21 = call ptr @Dch_CreateCandEquivClasses(ptr noundef %14, i32 noundef %17, i32 noundef %20)
  %22 = load ptr, ptr %5, align 8, !tbaa !26
  %23 = getelementptr inbounds nuw %struct.Dch_Man_t_, ptr %22, i32 0, i32 3
  store ptr %21, ptr %23, align 8, !tbaa !28
  %24 = call i64 @Abc_Clock()
  %25 = load i64, ptr %6, align 8, !tbaa !25
  %26 = sub nsw i64 %24, %25
  %27 = load ptr, ptr %5, align 8, !tbaa !26
  %28 = getelementptr inbounds nuw %struct.Dch_Man_t_, ptr %27, i32 0, i32 25
  store i64 %26, ptr %28, align 8, !tbaa !35
  %29 = load ptr, ptr %5, align 8, !tbaa !26
  %30 = getelementptr inbounds nuw %struct.Dch_Man_t_, ptr %29, i32 0, i32 3
  %31 = load ptr, ptr %30, align 8, !tbaa !28
  %32 = call i32 @Dch_ClassesLitNum(ptr noundef %31)
  %33 = load ptr, ptr %5, align 8, !tbaa !26
  %34 = getelementptr inbounds nuw %struct.Dch_Man_t_, ptr %33, i32 0, i32 21
  store i32 %32, ptr %34, align 4, !tbaa !36
  %35 = load ptr, ptr %5, align 8, !tbaa !26
  call void @Dch_ManSweep(ptr noundef %35)
  %36 = call i64 @Abc_Clock()
  %37 = load i64, ptr %7, align 8, !tbaa !25
  %38 = sub nsw i64 %36, %37
  %39 = load ptr, ptr %5, align 8, !tbaa !26
  %40 = getelementptr inbounds nuw %struct.Dch_Man_t_, ptr %39, i32 0, i32 33
  store i64 %38, ptr %40, align 8, !tbaa !37
  %41 = load ptr, ptr %5, align 8, !tbaa !26
  call void @Dch_ManStop(ptr noundef %41)
  call void @llvm.lifetime.end.p0(i64 8, ptr %7) #8
  call void @llvm.lifetime.end.p0(i64 8, ptr %6) #8
  call void @llvm.lifetime.end.p0(i64 8, ptr %5) #8
  ret void
}