; Function Attrs: nounwind uwtable
define void @Dch_ComputeEquivalences(ptr noundef %0, ptr noundef %1) local_unnamed_addr #3 {
  %3 = alloca %struct.timespec, align 8
  %4 = alloca %struct.timespec, align 8
  %5 = alloca %struct.timespec, align 8
  %6 = alloca %struct.timespec, align 8
  call void @llvm.lifetime.start.p0(i64 16, ptr nonnull %6) #12
  %7 = call i32 @clock_gettime(i32 noundef 1, ptr noundef nonnull %6) #12
  %8 = icmp slt i32 %7, 0
  br i1 %8, label %Abc_Clock.exit, label %9

9:                                                ; preds = %2
  %10 = load i64, ptr %6, align 8, !tbaa !18
  %.neg22 = mul i64 %10, -1000000
  %11 = getelementptr inbounds nuw i8, ptr %6, i64 8
  %12 = load i64, ptr %11, align 8, !tbaa !20
  %.neg21 = sdiv i64 %12, -1000
  %.neg23 = add i64 %.neg21, %.neg22
  br label %Abc_Clock.exit

Abc_Clock.exit:                                   ; preds = %2, %9
  %.0.i.neg = phi i64 [ %.neg23, %9 ], [ 1, %2 ]
  call void @llvm.lifetime.end.p0(i64 16, ptr nonnull %6) #12
  %13 = call i32 @Aig_ManRandom(i32 noundef 1) #12
  %14 = call ptr @Dch_ManCreate(ptr noundef %0, ptr noundef %1) #12
  call void @llvm.lifetime.start.p0(i64 16, ptr nonnull %5) #12
  %15 = call i32 @clock_gettime(i32 noundef 1, ptr noundef nonnull %5) #12
  %16 = icmp slt i32 %15, 0
  br i1 %16, label %Abc_Clock.exit14, label %17

17:                                               ; preds = %Abc_Clock.exit
  %18 = load i64, ptr %5, align 8, !tbaa !18
  %.neg19 = mul i64 %18, -1000000
  %19 = getelementptr inbounds nuw i8, ptr %5, i64 8
  %20 = load i64, ptr %19, align 8, !tbaa !20
  %.neg = sdiv i64 %20, -1000
  %.neg20 = add i64 %.neg, %.neg19
  br label %Abc_Clock.exit14

Abc_Clock.exit14:                                 ; preds = %Abc_Clock.exit, %17
  %.0.i13.neg = phi i64 [ %.neg20, %17 ], [ 1, %Abc_Clock.exit ]
  call void @llvm.lifetime.end.p0(i64 16, ptr nonnull %5) #12
  %21 = load i32, ptr %1, align 8, !tbaa !3
  %22 = getelementptr inbounds nuw i8, ptr %1, i64 52
  %23 = load i32, ptr %22, align 4, !tbaa !15
  %24 = call ptr @Dch_CreateCandEquivClasses(ptr noundef %0, i32 noundef %21, i32 noundef %23) #12
  %25 = getelementptr inbounds nuw i8, ptr %14, i64 24
  store ptr %24, ptr %25, align 8, !tbaa !21
  call void @llvm.lifetime.start.p0(i64 16, ptr nonnull %4) #12
  %26 = call i32 @clock_gettime(i32 noundef 1, ptr noundef nonnull %4) #12
  %27 = icmp slt i32 %26, 0
  br i1 %27, label %Abc_Clock.exit16, label %28

28:                                               ; preds = %Abc_Clock.exit14
  %29 = load i64, ptr %4, align 8, !tbaa !18
  %30 = mul nsw i64 %29, 1000000
  %31 = getelementptr inbounds nuw i8, ptr %4, i64 8
  %32 = load i64, ptr %31, align 8, !tbaa !20
  %33 = sdiv i64 %32, 1000
  %34 = add nsw i64 %33, %30
  br label %Abc_Clock.exit16

Abc_Clock.exit16:                                 ; preds = %Abc_Clock.exit14, %28
  %.0.i15 = phi i64 [ %34, %28 ], [ -1, %Abc_Clock.exit14 ]
  call void @llvm.lifetime.end.p0(i64 16, ptr nonnull %4) #12
  %35 = add i64 %.0.i15, %.0.i13.neg
  %36 = getelementptr inbounds nuw i8, ptr %14, i64 152
  store i64 %35, ptr %36, align 8, !tbaa !31
  %37 = load ptr, ptr %25, align 8, !tbaa !21
  %38 = call i32 @Dch_ClassesLitNum(ptr noundef %37) #12
  %39 = getelementptr inbounds nuw i8, ptr %14, i64 132
  store i32 %38, ptr %39, align 4, !tbaa !32
  call void @Dch_ManSweep(ptr noundef nonnull %14) #12
  call void @llvm.lifetime.start.p0(i64 16, ptr nonnull %3) #12
  %40 = call i32 @clock_gettime(i32 noundef 1, ptr noundef nonnull %3) #12
  %41 = icmp slt i32 %40, 0
  br i1 %41, label %Abc_Clock.exit18, label %42

42:                                               ; preds = %Abc_Clock.exit16
  %43 = load i64, ptr %3, align 8, !tbaa !18
  %44 = mul nsw i64 %43, 1000000
  %45 = getelementptr inbounds nuw i8, ptr %3, i64 8
  %46 = load i64, ptr %45, align 8, !tbaa !20
  %47 = sdiv i64 %46, 1000
  %48 = add nsw i64 %47, %44
  br label %Abc_Clock.exit18

Abc_Clock.exit18:                                 ; preds = %Abc_Clock.exit16, %42
  %.0.i17 = phi i64 [ %48, %42 ], [ -1, %Abc_Clock.exit16 ]
  call void @llvm.lifetime.end.p0(i64 16, ptr nonnull %3) #12
  %49 = add i64 %.0.i17, %.0.i.neg
  %50 = getelementptr inbounds nuw i8, ptr %14, i64 216
  store i64 %49, ptr %50, align 8, !tbaa !33
  call void @Dch_ManStop(ptr noundef nonnull %14) #12
  ret void
}